; Function Attrs: nounwind uwtable
define hidden i32 @getInet6Address_scopeid(ptr noundef %0, ptr noundef %1) local_unnamed_addr #1 {
  %3 = load ptr, ptr %0, align 8
  %4 = getelementptr inbounds i8, ptr %3, i64 760
  %5 = load ptr, ptr %4, align 8
  %6 = load ptr, ptr @ia6_holder6ID, align 8
  %7 = tail call ptr %5(ptr noundef nonnull %0, ptr noundef %1, ptr noundef %6) #7
  %8 = icmp eq ptr %7, null
  br i1 %8, label %18, label %9

9:                                                ; preds = %2
  %10 = load ptr, ptr %0, align 8
  %11 = getelementptr inbounds i8, ptr %10, i64 800
  %12 = load ptr, ptr %11, align 8
  %13 = load ptr, ptr @ia6_scopeidID, align 8
  %14 = tail call i32 %12(ptr noundef nonnull %0, ptr noundef nonnull %7, ptr noundef %13) #7
  %15 = load ptr, ptr %0, align 8
  %16 = getelementptr inbounds i8, ptr %15, i64 184
  %17 = load ptr, ptr %16, align 8
  tail call void %17(ptr noundef nonnull %0, ptr noundef nonnull %7) #7
  br label %18

18:                                               ; preds = %2, %9
  %.0 = phi i32 [ %14, %9 ], [ 0, %2 ]
  ret i32 %.0
}